target datalayout = "e-m:e-p270:32:32-p271:32:32-p272:64:64-i64:64-i128:128-f80:128-n8:16:32:64-S128"
target triple = "x86_64-pc-linux-gnu"

%struct.rdp_transports_key_t = type { %struct._address, i16, i8, i32, [16 x i8] }
%struct._address = type { i32, i32, ptr, ptr }

; Function Attrs: inlinehint nounwind null_pointer_is_valid sspstrong uwtable
define internal i32 @add_address_to_hash(i32 noundef %0, ptr noundef %1) #11 {
  %3 = alloca i32, align 4
  %4 = alloca ptr, align 8
  %5 = alloca ptr, align 8
  %6 = alloca i32, align 4
  store i32 %0, ptr %3, align 4
  store ptr %1, ptr %4, align 8
  call void @llvm.lifetime.start.p0(i64 8, ptr %5) #15
  %7 = load ptr, ptr %4, align 8
  %8 = getelementptr inbounds nuw %struct._address, ptr %7, i32 0, i32 2
  %9 = load ptr, ptr %8, align 8
  store ptr %9, ptr %5, align 8
  call void @llvm.lifetime.start.p0(i64 4, ptr %6) #15
  store i32 0, ptr %6, align 4
  br label %10

10:                                               ; preds = %33, %2
  %11 = load i32, ptr %6, align 4
  %12 = load ptr, ptr %4, align 8
  %13 = getelementptr inbounds nuw %struct._address, ptr %12, i32 0, i32 1
  %14 = load i32, ptr %13, align 4
  %15 = icmp slt i32 %11, %14
  br i1 %15, label %16, label %36

16:                                               ; preds = %10
  %17 = load ptr, ptr %5, align 8
  %18 = load i32, ptr %6, align 4
  %19 = sext i32 %18 to i64
  %20 = getelementptr i8, ptr %17, i64 %19
  %21 = load i8, ptr %20, align 1
  %22 = zext i8 %21 to i32
  %23 = load i32, ptr %3, align 4
  %24 = add i32 %23, %22
  store i32 %24, ptr %3, align 4
  %25 = load i32, ptr %3, align 4
  %26 = shl i32 %25, 10
  %27 = load i32, ptr %3, align 4
  %28 = add i32 %27, %26
  store i32 %28, ptr %3, align 4
  %29 = load i32, ptr %3, align 4
  %30 = lshr i32 %29, 6
  %31 = load i32, ptr %3, align 4
  %32 = xor i32 %31, %30
  store i32 %32, ptr %3, align 4
  br label %33

33:                                               ; preds = %16
  %34 = load i32, ptr %6, align 4
  %35 = add i32 %34, 1
  store i32 %35, ptr %6, align 4
  br label %10, !llvm.loop !14

36:                                               ; preds = %10
  %37 = load i32, ptr %3, align 4
  call void @llvm.lifetime.end.p0(i64 4, ptr %6) #15
  call void @llvm.lifetime.end.p0(i64 8, ptr %5) #15
  ret i32 %37
}

; Function Attrs: null_pointer_is_valid sspstrong uwtable
define internal i32 @rdp_udp_conversation_hash(ptr noundef %0) #0 {
  %2 = alloca ptr, align 8
  %3 = alloca i32, align 4
  %4 = alloca i32, align 4
  %5 = alloca ptr, align 8
  store ptr %0, ptr %2, align 8
  call void @llvm.lifetime.start.p0(i64 4, ptr %3) #15
  call void @llvm.lifetime.start.p0(i64 4, ptr %4) #15
  call void @llvm.lifetime.start.p0(i64 8, ptr %5) #15
  %6 = load ptr, ptr %2, align 8
  store ptr %6, ptr %5, align 8
  %7 = load ptr, ptr %5, align 8
  %8 = getelementptr inbounds nuw %struct.rdp_transports_key_t, ptr %7, i32 0, i32 1
  %9 = load i16, ptr %8, align 8
  %10 = zext i16 %9 to i32
  %11 = load ptr, ptr %5, align 8
  %12 = getelementptr inbounds nuw %struct.rdp_transports_key_t, ptr %11, i32 0, i32 2
  %13 = load i8, ptr %12, align 2, !range !6, !noundef !7
  %14 = trunc i8 %13 to i1
  %15 = zext i1 %14 to i32
  %16 = add i32 %10, %15
  %17 = load ptr, ptr %5, align 8
  %18 = getelementptr inbounds nuw %struct.rdp_transports_key_t, ptr %17, i32 0, i32 3
  %19 = load i32, ptr %18, align 4
  %20 = add i32 %16, %19
  store i32 %20, ptr %3, align 4
  %21 = load i32, ptr %3, align 4
  %22 = load ptr, ptr %5, align 8
  %23 = getelementptr inbounds nuw %struct.rdp_transports_key_t, ptr %22, i32 0, i32 0
  %24 = call i32 @add_address_to_hash(i32 noundef %21, ptr noundef %23)
  store i32 %24, ptr %3, align 4
  store i32 0, ptr %4, align 4
  br label %25

25:                                               ; preds = %38, %1
  %26 = load i32, ptr %4, align 4
  %27 = icmp slt i32 %26, 16
  br i1 %27, label %28, label %41

28:                                               ; preds = %25
  %29 = load ptr, ptr %5, align 8
  %30 = getelementptr inbounds nuw %struct.rdp_transports_key_t, ptr %29, i32 0, i32 4
  %31 = load i32, ptr %4, align 4
  %32 = sext i32 %31 to i64
  %33 = getelementptr [16 x i8], ptr %30, i64 0, i64 %32
  %34 = load i8, ptr %33, align 1
  %35 = zext i8 %34 to i32
  %36 = load i32, ptr %3, align 4
  %37 = add i32 %36, %35
  store i32 %37, ptr %3, align 4
  br label %38

38:                                               ; preds = %28
  %39 = load i32, ptr %4, align 4
  %40 = add i32 %39, 1
  store i32 %40, ptr %4, align 4
  br label %25, !llvm.loop !13

41:                                               ; preds = %25
  %42 = load i32, ptr %3, align 4
  call void @llvm.lifetime.end.p0(i64 8, ptr %5) #15
  call void @llvm.lifetime.end.p0(i64 4, ptr %4) #15
  call void @llvm.lifetime.end.p0(i64 4, ptr %3) #15
  ret i32 %42
}