; Function Attrs: nofree norecurse nosync nounwind null_pointer_is_valid sspstrong memory(read, inaccessiblemem: none) uwtable
define internal i32 @rdp_udp_conversation_hash(ptr noundef readonly captures(none) %0) #8 {
  %2 = getelementptr inbounds nuw i8, ptr %0, i64 24
  %3 = load i16, ptr %2, align 8
  %4 = zext i16 %3 to i32
  %5 = getelementptr inbounds nuw i8, ptr %0, i64 26
  %6 = load i8, ptr %5, align 2, !range !8, !noundef !9
  %7 = zext nneg i8 %6 to i32
  %8 = add nuw nsw i32 %7, %4
  %9 = getelementptr inbounds nuw i8, ptr %0, i64 28
  %10 = load i32, ptr %9, align 4
  %11 = add i32 %8, %10
  %12 = getelementptr inbounds nuw i8, ptr %0, i64 8
  %13 = load ptr, ptr %12, align 8
  %14 = getelementptr inbounds nuw i8, ptr %0, i64 4
  %15 = load i32, ptr %14, align 4
  %16 = icmp sgt i32 %15, 0
  br i1 %16, label %.lr.ph.preheader.i, label %add_address_to_hash.exit

.lr.ph.preheader.i:                               ; preds = %1
  %wide.trip.count.i = zext nneg i32 %15 to i64
  br label %.lr.ph.i

.lr.ph.i:                                         ; preds = %.lr.ph.i, %.lr.ph.preheader.i
  %indvars.iv.i = phi i64 [ 0, %.lr.ph.preheader.i ], [ %indvars.iv.next.i, %.lr.ph.i ]
  %.01112.i = phi i32 [ %11, %.lr.ph.preheader.i ], [ %23, %.lr.ph.i ]
  %17 = getelementptr i8, ptr %13, i64 %indvars.iv.i
  %18 = load i8, ptr %17, align 1
  %19 = zext i8 %18 to i32
  %20 = add i32 %.01112.i, %19
  %21 = mul i32 %20, 1025
  %22 = lshr i32 %21, 6
  %23 = xor i32 %22, %21
  %indvars.iv.next.i = add nuw nsw i64 %indvars.iv.i, 1
  %exitcond.not.i = icmp eq i64 %indvars.iv.next.i, %wide.trip.count.i
  br i1 %exitcond.not.i, label %add_address_to_hash.exit, label %.lr.ph.i, !llvm.loop !18

add_address_to_hash.exit:                         ; preds = %.lr.ph.i, %1
  %.011.lcssa.i = phi i32 [ %11, %1 ], [ %23, %.lr.ph.i ]
  %24 = getelementptr inbounds nuw i8, ptr %0, i64 32
  br label %25

25:                                               ; preds = %add_address_to_hash.exit, %25
  %indvars.iv = phi i64 [ 0, %add_address_to_hash.exit ], [ %indvars.iv.next, %25 ]
  %.013 = phi i32 [ %.011.lcssa.i, %add_address_to_hash.exit ], [ %29, %25 ]
  %26 = getelementptr [16 x i8], ptr %24, i64 0, i64 %indvars.iv
  %27 = load i8, ptr %26, align 1
  %28 = zext i8 %27 to i32
  %29 = add i32 %.013, %28
  %indvars.iv.next = add nuw nsw i64 %indvars.iv, 1
  %exitcond.not = icmp eq i64 %indvars.iv.next, 16
  br i1 %exitcond.not, label %30, label %25, !llvm.loop !19

30:                                               ; preds = %25
  ret i32 %29
}